target datalayout = "e-m:e-p270:32:32-p271:32:32-p272:64:64-i64:64-i128:128-f80:128-n8:16:32:64-S128"
target triple = "x86_64-pc-linux-gnu"

%struct._zval_struct = type { %union._zend_value, %union.anon, %union.anon.2 }
%union._zend_value = type { i64 }
%union.anon = type { i32 }
%union.anon.2 = type { i32 }
%struct._zend_refcounted_h = type { i32, %union.anon.3 }
%union.anon.3 = type { i32 }
%struct._zend_object_handlers = type { i32, ptr, ptr, ptr, ptr, ptr, ptr, ptr, ptr, ptr, ptr, ptr, ptr, ptr, ptr, ptr, ptr, ptr, ptr, ptr, ptr, ptr, ptr, ptr, ptr }
%struct._zend_object = type { %struct._zend_refcounted_h, i32, i32, ptr, ptr, ptr, [1 x %struct._zval_struct] }
%struct.anon.0 = type { i8, i8, %union.anon.1 }
%union.anon.1 = type { i16 }
%struct._zend_reference = type { %struct._zend_refcounted_h, %struct._zval_struct, %union.zend_property_info_source_list }
%union.zend_property_info_source_list = type { ptr }

@.str.7 = private unnamed_addr constant [2 x i8] c"/\00", align 1
@zend_ce_division_by_zero_error = external global ptr, align 8
@.str.9 = private unnamed_addr constant [17 x i8] c"Division by zero\00", align 1

; Function Attrs: alwaysinline nounwind uwtable
define internal i32 @zendi_try_convert_scalar_to_number(ptr noundef %0, ptr noundef %1) #1 {
  %3 = alloca i32, align 4
  %4 = alloca ptr, align 8
  %5 = alloca ptr, align 8
  %6 = alloca ptr, align 8
  %7 = alloca ptr, align 8
  %8 = alloca ptr, align 8
  %9 = alloca i32, align 4
  store ptr %0, ptr %4, align 8, !tbaa !12
  store ptr %1, ptr %5, align 8, !tbaa !12
  %10 = load ptr, ptr %4, align 8, !tbaa !12
  %11 = call zeroext i8 @zval_get_type(ptr noundef %10)
  %12 = zext i8 %11 to i32
  %13 = icmp eq i32 %12, 4
  br i1 %13, label %19, label %14

14:                                               ; preds = %2
  %15 = load ptr, ptr %4, align 8, !tbaa !12
  %16 = call zeroext i8 @zval_get_type(ptr noundef %15)
  %17 = zext i8 %16 to i32
  %18 = icmp eq i32 %17, 5
  br i1 %18, label %19, label %39

19:                                               ; preds = %14, %2
  br label %20

20:                                               ; preds = %19
  call void @llvm.lifetime.start.p0(i64 8, ptr %6) #20
  %21 = load ptr, ptr %5, align 8, !tbaa !12
  store ptr %21, ptr %6, align 8, !tbaa !12
  call void @llvm.lifetime.start.p0(i64 8, ptr %7) #20
  %22 = load ptr, ptr %4, align 8, !tbaa !12
  store ptr %22, ptr %7, align 8, !tbaa !12
  call void @llvm.lifetime.start.p0(i64 8, ptr %8) #20
  %23 = load ptr, ptr %7, align 8, !tbaa !12
  %24 = getelementptr inbounds nuw %struct._zval_struct, ptr %23, i32 0, i32 0
  %25 = load ptr, ptr %24, align 8, !tbaa !11
  store ptr %25, ptr %8, align 8, !tbaa !42
  call void @llvm.lifetime.start.p0(i64 4, ptr %9) #20
  %26 = load ptr, ptr %7, align 8, !tbaa !12
  %27 = getelementptr inbounds nuw %struct._zval_struct, ptr %26, i32 0, i32 1
  %28 = load i32, ptr %27, align 8, !tbaa !11
  store i32 %28, ptr %9, align 4, !tbaa !44
  br label %29

29:                                               ; preds = %20
  %30 = load ptr, ptr %8, align 8, !tbaa !42
  %31 = load ptr, ptr %6, align 8, !tbaa !12
  %32 = getelementptr inbounds nuw %struct._zval_struct, ptr %31, i32 0, i32 0
  store ptr %30, ptr %32, align 8, !tbaa !11
  %33 = load i32, ptr %9, align 4, !tbaa !44
  %34 = load ptr, ptr %6, align 8, !tbaa !12
  %35 = getelementptr inbounds nuw %struct._zval_struct, ptr %34, i32 0, i32 1
  store i32 %33, ptr %35, align 8, !tbaa !11
  br label %36

36:                                               ; preds = %29
  br label %37

37:                                               ; preds = %36
  call void @llvm.lifetime.end.p0(i64 4, ptr %9) #20
  call void @llvm.lifetime.end.p0(i64 8, ptr %8) #20
  call void @llvm.lifetime.end.p0(i64 8, ptr %7) #20
  call void @llvm.lifetime.end.p0(i64 8, ptr %6) #20
  br label %38

38:                                               ; preds = %37
  store i32 0, ptr %3, align 4
  br label %43

39:                                               ; preds = %14
  %40 = load ptr, ptr %4, align 8, !tbaa !12
  %41 = load ptr, ptr %5, align 8, !tbaa !12
  %42 = call i32 @_zendi_try_convert_scalar_to_number(ptr noundef %40, ptr noundef %41)
  store i32 %42, ptr %3, align 4
  br label %43

43:                                               ; preds = %39, %38
  %44 = load i32, ptr %3, align 4
  ret i32 %44
}

; Function Attrs: alwaysinline nounwind uwtable
define internal zeroext i8 @zval_get_type(ptr noundef %0) #1 {
  %2 = alloca ptr, align 8
  store ptr %0, ptr %2, align 8, !tbaa !12
  %3 = load ptr, ptr %2, align 8, !tbaa !12
  %4 = getelementptr inbounds nuw %struct._zval_struct, ptr %3, i32 0, i32 1
  %5 = getelementptr inbounds nuw %struct.anon.0, ptr %4, i32 0, i32 0
  %6 = load i8, ptr %5, align 8, !tbaa !11
  ret i8 %6
}

; Function Attrs: nounwind uwtable
define dso_local i32 @div_function(ptr noundef %0, ptr noundef %1, ptr noundef %2) #0 {
  %4 = alloca i32, align 4
  %5 = alloca ptr, align 8
  %6 = alloca ptr, align 8
  %7 = alloca ptr, align 8
  %8 = alloca i32, align 4
  %9 = alloca i32, align 4
  %10 = alloca %struct._zval_struct, align 8
  %11 = alloca %struct._zval_struct, align 8
  %12 = alloca %struct._zval_struct, align 8
  %13 = alloca ptr, align 8
  %14 = alloca ptr, align 8
  %15 = alloca ptr, align 8
  %16 = alloca i32, align 4
  store ptr %0, ptr %5, align 8, !tbaa !12
  store ptr %1, ptr %6, align 8, !tbaa !12
  store ptr %2, ptr %7, align 8, !tbaa !12
  br label %17

17:                                               ; preds = %3
  %18 = load ptr, ptr %6, align 8, !tbaa !12
  %19 = call zeroext i8 @zval_get_type(ptr noundef %18)
  %20 = zext i8 %19 to i32
  %21 = icmp eq i32 %20, 10
  %22 = xor i1 %21, true
  %23 = xor i1 %22, true
  %24 = zext i1 %23 to i32
  %25 = sext i32 %24 to i64
  %26 = call i64 @llvm.expect.i64(i64 %25, i64 0)
  %27 = icmp ne i64 %26, 0
  br i1 %27, label %28, label %33

28:                                               ; preds = %17
  %29 = load ptr, ptr %6, align 8, !tbaa !12
  %30 = getelementptr inbounds nuw %struct._zval_struct, ptr %29, i32 0, i32 0
  %31 = load ptr, ptr %30, align 8, !tbaa !11
  %32 = getelementptr inbounds nuw %struct._zend_reference, ptr %31, i32 0, i32 1
  store ptr %32, ptr %6, align 8, !tbaa !12
  br label %33

33:                                               ; preds = %28, %17
  br label %34

34:                                               ; preds = %33
  br label %35

35:                                               ; preds = %34
  %36 = load ptr, ptr %7, align 8, !tbaa !12
  %37 = call zeroext i8 @zval_get_type(ptr noundef %36)
  %38 = zext i8 %37 to i32
  %39 = icmp eq i32 %38, 10
  %40 = xor i1 %39, true
  %41 = xor i1 %40, true
  %42 = zext i1 %41 to i32
  %43 = sext i32 %42 to i64
  %44 = call i64 @llvm.expect.i64(i64 %43, i64 0)
  %45 = icmp ne i64 %44, 0
  br i1 %45, label %46, label %51

46:                                               ; preds = %35
  %47 = load ptr, ptr %7, align 8, !tbaa !12
  %48 = getelementptr inbounds nuw %struct._zval_struct, ptr %47, i32 0, i32 0
  %49 = load ptr, ptr %48, align 8, !tbaa !11
  %50 = getelementptr inbounds nuw %struct._zend_reference, ptr %49, i32 0, i32 1
  store ptr %50, ptr %7, align 8, !tbaa !12
  br label %51

51:                                               ; preds = %46, %35
  br label %52

52:                                               ; preds = %51
  call void @llvm.lifetime.start.p0(i64 4, ptr %8) #20
  %53 = load ptr, ptr %5, align 8, !tbaa !12
  %54 = load ptr, ptr %6, align 8, !tbaa !12
  %55 = load ptr, ptr %7, align 8, !tbaa !12
  %56 = call i32 @div_function_base(ptr noundef %53, ptr noundef %54, ptr noundef %55)
  store i32 %56, ptr %8, align 4, !tbaa !44
  %57 = load i32, ptr %8, align 4, !tbaa !44
  %58 = icmp eq i32 %57, 0
  %59 = xor i1 %58, true
  %60 = xor i1 %59, true
  %61 = zext i1 %60 to i32
  %62 = sext i32 %61 to i64
  %63 = call i64 @llvm.expect.i64(i64 %62, i64 1)
  %64 = icmp ne i64 %63, 0
  br i1 %64, label %65, label %66

65:                                               ; preds = %52
  store i32 0, ptr %4, align 4
  store i32 1, ptr %9, align 4
  br label %251

66:                                               ; preds = %52
  %67 = load i32, ptr %8, align 4, !tbaa !44
  %68 = icmp eq i32 %67, 1
  %69 = xor i1 %68, true
  %70 = xor i1 %69, true
  %71 = zext i1 %70 to i32
  %72 = sext i32 %71 to i64
  %73 = call i64 @llvm.expect.i64(i64 %72, i64 0)
  %74 = icmp ne i64 %73, 0
  br i1 %74, label %75, label %76

75:                                               ; preds = %66
  br label %234

76:                                               ; preds = %66
  %77 = load ptr, ptr %6, align 8, !tbaa !12
  %78 = call zeroext i8 @zval_get_type(ptr noundef %77)
  %79 = zext i8 %78 to i32
  %80 = icmp eq i32 %79, 8
  %81 = xor i1 %80, true
  %82 = xor i1 %81, true
  %83 = zext i1 %82 to i32
  %84 = sext i32 %83 to i64
  %85 = call i64 @llvm.expect.i64(i64 %84, i64 0)
  %86 = icmp ne i64 %85, 0
  br i1 %86, label %87, label %123

87:                                               ; preds = %76
  %88 = load ptr, ptr %6, align 8, !tbaa !12
  %89 = getelementptr inbounds nuw %struct._zval_struct, ptr %88, i32 0, i32 0
  %90 = load ptr, ptr %89, align 8, !tbaa !11
  %91 = getelementptr inbounds nuw %struct._zend_object, ptr %90, i32 0, i32 4
  %92 = load ptr, ptr %91, align 8, !tbaa !22
  %93 = getelementptr inbounds nuw %struct._zend_object_handlers, ptr %92, i32 0, i32 22
  %94 = load ptr, ptr %93, align 8, !tbaa !99
  %95 = icmp ne ptr %94, null
  %96 = xor i1 %95, true
  %97 = xor i1 %96, true
  %98 = zext i1 %97 to i32
  %99 = sext i32 %98 to i64
  %100 = call i64 @llvm.expect.i64(i64 %99, i64 0)
  %101 = icmp ne i64 %100, 0
  br i1 %101, label %102, label %123

102:                                              ; preds = %87
  %103 = load ptr, ptr %6, align 8, !tbaa !12
  %104 = getelementptr inbounds nuw %struct._zval_struct, ptr %103, i32 0, i32 0
  %105 = load ptr, ptr %104, align 8, !tbaa !11
  %106 = getelementptr inbounds nuw %struct._zend_object, ptr %105, i32 0, i32 4
  %107 = load ptr, ptr %106, align 8, !tbaa !22
  %108 = getelementptr inbounds nuw %struct._zend_object_handlers, ptr %107, i32 0, i32 22
  %109 = load ptr, ptr %108, align 8, !tbaa !99
  %110 = load ptr, ptr %5, align 8, !tbaa !12
  %111 = load ptr, ptr %6, align 8, !tbaa !12
  %112 = load ptr, ptr %7, align 8, !tbaa !12
  %113 = call i32 %109(i8 noundef zeroext 4, ptr noundef %110, ptr noundef %111, ptr noundef %112)
  %114 = icmp eq i32 0, %113
  %115 = xor i1 %114, true
  %116 = xor i1 %115, true
  %117 = zext i1 %116 to i32
  %118 = sext i32 %117 to i64
  %119 = call i64 @llvm.expect.i64(i64 %118, i64 1)
  %120 = icmp ne i64 %119, 0
  br i1 %120, label %121, label %122

121:                                              ; preds = %102
  store i32 0, ptr %4, align 4
  store i32 1, ptr %9, align 4
  br label %251

122:                                              ; preds = %102
  br label %170

123:                                              ; preds = %87, %76
  %124 = load ptr, ptr %7, align 8, !tbaa !12
  %125 = call zeroext i8 @zval_get_type(ptr noundef %124)
  %126 = zext i8 %125 to i32
  %127 = icmp eq i32 %126, 8
  %128 = xor i1 %127, true
  %129 = xor i1 %128, true
  %130 = zext i1 %129 to i32
  %131 = sext i32 %130 to i64
  %132 = call i64 @llvm.expect.i64(i64 %131, i64 0)
  %133 = icmp ne i64 %132, 0
  br i1 %133, label %134, label %169

134:                                              ; preds = %123
  %135 = load ptr, ptr %7, align 8, !tbaa !12
  %136 = getelementptr inbounds nuw %struct._zval_struct, ptr %135, i32 0, i32 0
  %137 = load ptr, ptr %136, align 8, !tbaa !11
  %138 = getelementptr inbounds nuw %struct._zend_object, ptr %137, i32 0, i32 4
  %139 = load ptr, ptr %138, align 8, !tbaa !22
  %140 = getelementptr inbounds nuw %struct._zend_object_handlers, ptr %139, i32 0, i32 22
  %141 = load ptr, ptr %140, align 8, !tbaa !99
  %142 = icmp ne ptr %141, null
  %143 = xor i1 %142, true
  %144 = xor i1 %143, true
  %145 = zext i1 %144 to i32
  %146 = sext i32 %145 to i64
  %147 = call i64 @llvm.expect.i64(i64 %146, i64 0)
  %148 = icmp ne i64 %147, 0
  br i1 %148, label %149, label %169

149:                                              ; preds = %134
  %150 = load ptr, ptr %7, align 8, !tbaa !12
  %151 = getelementptr inbounds nuw %struct._zval_struct, ptr %150, i32 0, i32 0
  %152 = load ptr, ptr %151, align 8, !tbaa !11
  %153 = getelementptr inbounds nuw %struct._zend_object, ptr %152, i32 0, i32 4
  %154 = load ptr, ptr %153, align 8, !tbaa !22
  %155 = getelementptr inbounds nuw %struct._zend_object_handlers, ptr %154, i32 0, i32 22
  %156 = load ptr, ptr %155, align 8, !tbaa !99
  %157 = load ptr, ptr %5, align 8, !tbaa !12
  %158 = load ptr, ptr %6, align 8, !tbaa !12
  %159 = load ptr, ptr %7, align 8, !tbaa !12
  %160 = call i32 %156(i8 noundef zeroext 4, ptr noundef %157, ptr noundef %158, ptr noundef %159)
  %161 = icmp eq i32 0, %160
  %162 = xor i1 %161, true
  %163 = xor i1 %162, true
  %164 = zext i1 %163 to i32
  %165 = sext i32 %164 to i64
  %166 = call i64 @llvm.expect.i64(i64 %165, i64 1)
  %167 = icmp ne i64 %166, 0
  br i1 %167, label %168, label %169

168:                                              ; preds = %149
  store i32 0, ptr %4, align 4
  store i32 1, ptr %9, align 4
  br label %251

169:                                              ; preds = %149, %134, %123
  br label %170

170:                                              ; preds = %169, %122
  %171 = load ptr, ptr %6, align 8, !tbaa !12
  %172 = call i32 @zendi_try_convert_scalar_to_number(ptr noundef %171, ptr noundef %11)
  %173 = icmp eq i32 %172, -1
  %174 = xor i1 %173, true
  %175 = xor i1 %174, true
  %176 = zext i1 %175 to i32
  %177 = sext i32 %176 to i64
  %178 = call i64 @llvm.expect.i64(i64 %177, i64 0)
  %179 = icmp ne i64 %178, 0
  br i1 %179, label %190, label %180

180:                                              ; preds = %170
  %181 = load ptr, ptr %7, align 8, !tbaa !12
  %182 = call i32 @zendi_try_convert_scalar_to_number(ptr noundef %181, ptr noundef %12)
  %183 = icmp eq i32 %182, -1
  %184 = xor i1 %183, true
  %185 = xor i1 %184, true
  %186 = zext i1 %185 to i32
  %187 = sext i32 %186 to i64
  %188 = call i64 @llvm.expect.i64(i64 %187, i64 0)
  %189 = icmp ne i64 %188, 0
  br i1 %189, label %190, label %203

190:                                              ; preds = %180, %170
  %191 = load ptr, ptr %6, align 8, !tbaa !12
  %192 = load ptr, ptr %7, align 8, !tbaa !12
  call void @zend_binop_error(ptr noundef @.str.7, ptr noundef %191, ptr noundef %192)
  %193 = load ptr, ptr %5, align 8, !tbaa !12
  %194 = load ptr, ptr %6, align 8, !tbaa !12
  %195 = icmp ne ptr %193, %194
  br i1 %195, label %196, label %202

196:                                              ; preds = %190
  br label %197

197:                                              ; preds = %196
  %198 = load ptr, ptr %5, align 8, !tbaa !12
  %199 = getelementptr inbounds nuw %struct._zval_struct, ptr %198, i32 0, i32 1
  store i32 0, ptr %199, align 8, !tbaa !11
  br label %200

200:                                              ; preds = %197
  br label %201

201:                                              ; preds = %200
  br label %202

202:                                              ; preds = %201, %190
  store i32 -1, ptr %4, align 4
  store i32 1, ptr %9, align 4
  br label %251

203:                                              ; preds = %180
  %204 = call i32 @div_function_base(ptr noundef %10, ptr noundef %11, ptr noundef %12)
  store i32 %204, ptr %8, align 4, !tbaa !44
  %205 = load i32, ptr %8, align 4, !tbaa !44
  %206 = icmp eq i32 %205, 0
  br i1 %206, label %207, label %233

207:                                              ; preds = %203
  %208 = load ptr, ptr %5, align 8, !tbaa !12
  %209 = load ptr, ptr %6, align 8, !tbaa !12
  %210 = icmp eq ptr %208, %209
  br i1 %210, label %211, label %213

211:                                              ; preds = %207
  %212 = load ptr, ptr %5, align 8, !tbaa !12
  call void @zval_ptr_dtor(ptr noundef %212)
  br label %213

213:                                              ; preds = %211, %207
  br label %214

214:                                              ; preds = %213
  call void @llvm.lifetime.start.p0(i64 8, ptr %13) #20
  %215 = load ptr, ptr %5, align 8, !tbaa !12
  store ptr %215, ptr %13, align 8, !tbaa !12
  call void @llvm.lifetime.start.p0(i64 8, ptr %14) #20
  store ptr %10, ptr %14, align 8, !tbaa !12
  call void @llvm.lifetime.start.p0(i64 8, ptr %15) #20
  %216 = load ptr, ptr %14, align 8, !tbaa !12
  %217 = getelementptr inbounds nuw %struct._zval_struct, ptr %216, i32 0, i32 0
  %218 = load ptr, ptr %217, align 8, !tbaa !11
  store ptr %218, ptr %15, align 8, !tbaa !42
  call void @llvm.lifetime.start.p0(i64 4, ptr %16) #20
  %219 = load ptr, ptr %14, align 8, !tbaa !12
  %220 = getelementptr inbounds nuw %struct._zval_struct, ptr %219, i32 0, i32 1
  %221 = load i32, ptr %220, align 8, !tbaa !11
  store i32 %221, ptr %16, align 4, !tbaa !44
  br label %222

222:                                              ; preds = %214
  %223 = load ptr, ptr %15, align 8, !tbaa !42
  %224 = load ptr, ptr %13, align 8, !tbaa !12
  %225 = getelementptr inbounds nuw %struct._zval_struct, ptr %224, i32 0, i32 0
  store ptr %223, ptr %225, align 8, !tbaa !11
  %226 = load i32, ptr %16, align 4, !tbaa !44
  %227 = load ptr, ptr %13, align 8, !tbaa !12
  %228 = getelementptr inbounds nuw %struct._zval_struct, ptr %227, i32 0, i32 1
  store i32 %226, ptr %228, align 8, !tbaa !11
  br label %229

229:                                              ; preds = %222
  br label %230

230:                                              ; preds = %229
  call void @llvm.lifetime.end.p0(i64 4, ptr %16) #20
  call void @llvm.lifetime.end.p0(i64 8, ptr %15) #20
  call void @llvm.lifetime.end.p0(i64 8, ptr %14) #20
  call void @llvm.lifetime.end.p0(i64 8, ptr %13) #20
  br label %231

231:                                              ; preds = %230
  br label %232

232:                                              ; preds = %231
  store i32 0, ptr %4, align 4
  store i32 1, ptr %9, align 4
  br label %251

233:                                              ; preds = %203
  br label %234

234:                                              ; preds = %233, %75
  %235 = load i32, ptr %8, align 4, !tbaa !44
  %236 = icmp eq i32 %235, 1
  br i1 %236, label %237, label %238

237:                                              ; preds = %234
  br label %238

238:                                              ; preds = %237, %234
  %239 = phi i1 [ false, %234 ], [ true, %237 ]
  call void @llvm.assume(i1 %239)
  %240 = load ptr, ptr %5, align 8, !tbaa !12
  %241 = load ptr, ptr %6, align 8, !tbaa !12
  %242 = icmp ne ptr %240, %241
  br i1 %242, label %243, label %249

243:                                              ; preds = %238
  br label %244

244:                                              ; preds = %243
  %245 = load ptr, ptr %5, align 8, !tbaa !12
  %246 = getelementptr inbounds nuw %struct._zval_struct, ptr %245, i32 0, i32 1
  store i32 0, ptr %246, align 8, !tbaa !11
  br label %247

247:                                              ; preds = %244
  br label %248

248:                                              ; preds = %247
  br label %249

249:                                              ; preds = %248, %238
  %250 = load ptr, ptr @zend_ce_division_by_zero_error, align 8, !tbaa !89
  call void (ptr, ptr, ...) @zend_throw_error(ptr noundef %250, ptr noundef @.str.9)
  store i32 -1, ptr %4, align 4
  store i32 1, ptr %9, align 4
  br label %251

251:                                              ; preds = %249, %232, %202, %168, %121, %65
  call void @llvm.lifetime.end.p0(i64 4, ptr %8) #20
  %252 = load i32, ptr %4, align 4
  ret i32 %252
}