; Function Attrs: nounwind uwtable
define dso_local range(i32 -1, 1) i32 @div_function(ptr noundef %0, ptr noundef %1, ptr noundef %2) local_unnamed_addr #1 {
  %4 = alloca %struct._zval_struct, align 8
  %5 = alloca %struct._zval_struct, align 8
  %6 = alloca %struct._zval_struct, align 8
  %7 = getelementptr inbounds nuw i8, ptr %1, i64 8
  %8 = load i8, ptr %7, align 8, !tbaa !4
  %9 = icmp eq i8 %8, 10
  br i1 %9, label %10, label %13, !prof !41

10:                                               ; preds = %3
  %11 = load ptr, ptr %1, align 8, !tbaa !4
  %12 = getelementptr inbounds nuw i8, ptr %11, i64 8
  br label %13

13:                                               ; preds = %10, %3
  %.043 = phi ptr [ %12, %10 ], [ %1, %3 ]
  %14 = getelementptr inbounds nuw i8, ptr %2, i64 8
  %15 = load i8, ptr %14, align 8, !tbaa !4
  %16 = icmp eq i8 %15, 10
  br i1 %16, label %17, label %20, !prof !41

17:                                               ; preds = %13
  %18 = load ptr, ptr %2, align 8, !tbaa !4
  %19 = getelementptr inbounds nuw i8, ptr %18, i64 8
  br label %20

20:                                               ; preds = %13, %17
  %.044 = phi ptr [ %19, %17 ], [ %2, %13 ]
  %21 = tail call fastcc i32 @div_function_base(ptr noundef %0, ptr noundef nonnull %.043, ptr noundef nonnull %.044)
  switch i32 %21, label %22 [
    i32 0, label %85
    i32 1, label %79
  ], !prof !96

22:                                               ; preds = %20
  %23 = getelementptr inbounds nuw i8, ptr %.043, i64 8
  %24 = load i8, ptr %23, align 8, !tbaa !4
  %25 = icmp eq i8 %24, 8
  br i1 %25, label %26, label %35, !prof !41

26:                                               ; preds = %22
  %27 = load ptr, ptr %.043, align 8, !tbaa !4
  %28 = getelementptr inbounds nuw i8, ptr %27, i64 24
  %29 = load ptr, ptr %28, align 8, !tbaa !16
  %30 = getelementptr inbounds nuw i8, ptr %29, i64 176
  %31 = load ptr, ptr %30, align 8, !tbaa !89
  %.not = icmp eq ptr %31, null
  br i1 %.not, label %35, label %32, !prof !38

32:                                               ; preds = %26
  %33 = tail call i32 %31(i8 noundef zeroext 4, ptr noundef %0, ptr noundef nonnull %.043, ptr noundef nonnull %.044) #28
  %34 = icmp eq i32 %33, 0
  br i1 %34, label %85, label %48, !prof !38

35:                                               ; preds = %26, %22
  %36 = getelementptr inbounds nuw i8, ptr %.044, i64 8
  %37 = load i8, ptr %36, align 8, !tbaa !4
  %38 = icmp eq i8 %37, 8
  br i1 %38, label %39, label %48, !prof !41

39:                                               ; preds = %35
  %40 = load ptr, ptr %.044, align 8, !tbaa !4
  %41 = getelementptr inbounds nuw i8, ptr %40, i64 24
  %42 = load ptr, ptr %41, align 8, !tbaa !16
  %43 = getelementptr inbounds nuw i8, ptr %42, i64 176
  %44 = load ptr, ptr %43, align 8, !tbaa !89
  %.not51 = icmp eq ptr %44, null
  br i1 %.not51, label %48, label %45, !prof !38

45:                                               ; preds = %39
  %46 = tail call i32 %44(i8 noundef zeroext 4, ptr noundef %0, ptr noundef nonnull %.043, ptr noundef nonnull %.044) #28
  %47 = icmp eq i32 %46, 0
  br i1 %47, label %85, label %48, !prof !38

48:                                               ; preds = %35, %39, %45, %32
  %49 = load i8, ptr %23, align 8, !tbaa !4
  %50 = and i8 %49, -2
  %switch = icmp eq i8 %50, 4
  br i1 %switch, label %zendi_try_convert_scalar_to_number.exit55.thread, label %zendi_try_convert_scalar_to_number.exit55

zendi_try_convert_scalar_to_number.exit55.thread: ; preds = %48
  %51 = load ptr, ptr %.043, align 8, !tbaa !4
  %52 = load i32, ptr %23, align 8, !tbaa !4
  store ptr %51, ptr %5, align 8, !tbaa !4
  %53 = getelementptr inbounds nuw i8, ptr %5, i64 8
  store i32 %52, ptr %53, align 8, !tbaa !4
  br label %56

zendi_try_convert_scalar_to_number.exit55:        ; preds = %48
  %54 = call fastcc i32 @_zendi_try_convert_scalar_to_number(ptr noundef nonnull %.043, ptr noundef nonnull %5)
  %55 = icmp eq i32 %54, -1
  br i1 %55, label %65, label %56, !prof !94

56:                                               ; preds = %zendi_try_convert_scalar_to_number.exit55.thread, %zendi_try_convert_scalar_to_number.exit55
  %57 = getelementptr inbounds nuw i8, ptr %.044, i64 8
  %58 = load i8, ptr %57, align 8, !tbaa !4
  %59 = and i8 %58, -2
  %switch59 = icmp eq i8 %59, 4
  br i1 %switch59, label %zendi_try_convert_scalar_to_number.exit.thread, label %zendi_try_convert_scalar_to_number.exit

zendi_try_convert_scalar_to_number.exit.thread:   ; preds = %56
  %60 = load ptr, ptr %.044, align 8, !tbaa !4
  %61 = load i32, ptr %57, align 8, !tbaa !4
  store ptr %60, ptr %6, align 8, !tbaa !4
  %62 = getelementptr inbounds nuw i8, ptr %6, i64 8
  store i32 %61, ptr %62, align 8, !tbaa !4
  br label %68

zendi_try_convert_scalar_to_number.exit:          ; preds = %56
  %63 = call fastcc i32 @_zendi_try_convert_scalar_to_number(ptr noundef nonnull %.044, ptr noundef nonnull %6)
  %64 = icmp eq i32 %63, -1
  br i1 %64, label %65, label %68, !prof !94

65:                                               ; preds = %zendi_try_convert_scalar_to_number.exit, %zendi_try_convert_scalar_to_number.exit55
  call fastcc void @zend_binop_error(ptr noundef nonnull @.str.7, ptr noundef nonnull %.043, ptr noundef nonnull %.044)
  %.not52 = icmp eq ptr %0, %.043
  br i1 %.not52, label %85, label %66

66:                                               ; preds = %65
  %67 = getelementptr inbounds nuw i8, ptr %0, i64 8
  store i32 0, ptr %67, align 8, !tbaa !4
  br label %85

68:                                               ; preds = %zendi_try_convert_scalar_to_number.exit.thread, %zendi_try_convert_scalar_to_number.exit
  %69 = call fastcc i32 @div_function_base(ptr noundef nonnull %4, ptr noundef nonnull %5, ptr noundef nonnull %6)
  %70 = icmp eq i32 %69, 0
  br i1 %70, label %71, label %79

71:                                               ; preds = %68
  %72 = icmp eq ptr %0, %.043
  br i1 %72, label %73, label %74

73:                                               ; preds = %71
  call void @zval_ptr_dtor(ptr noundef %0) #28
  br label %74

74:                                               ; preds = %71, %73
  %75 = load ptr, ptr %4, align 8, !tbaa !4
  %76 = getelementptr inbounds nuw i8, ptr %4, i64 8
  %77 = load i32, ptr %76, align 8, !tbaa !4
  store ptr %75, ptr %0, align 8, !tbaa !4
  %78 = getelementptr inbounds nuw i8, ptr %0, i64 8
  store i32 %77, ptr %78, align 8, !tbaa !4
  br label %85

79:                                               ; preds = %20, %68
  %.045 = phi i32 [ %69, %68 ], [ %21, %20 ]
  %80 = icmp eq i32 %.045, 1
  call void @llvm.assume(i1 %80)
  %.not53 = icmp eq ptr %0, %.043
  br i1 %.not53, label %83, label %81

81:                                               ; preds = %79
  %82 = getelementptr inbounds nuw i8, ptr %0, i64 8
  store i32 0, ptr %82, align 8, !tbaa !4
  br label %83

83:                                               ; preds = %81, %79
  %84 = load ptr, ptr @zend_ce_division_by_zero_error, align 8, !tbaa !80
  call void (ptr, ptr, ...) @zend_throw_error(ptr noundef %84, ptr noundef nonnull @.str.9) #28
  br label %85

85:                                               ; preds = %65, %66, %45, %32, %20, %83, %74
  %.0 = phi i32 [ -1, %83 ], [ 0, %74 ], [ %21, %20 ], [ 0, %32 ], [ 0, %45 ], [ -1, %66 ], [ -1, %65 ]
  ret i32 %.0
}